; Function Attrs: mustprogress nounwind uwtable
define hidden void @_ZNK5ZMark26verify_worker_stacks_emptyEv(ptr noundef nonnull align 64 dereferenceable(2652) %0) local_unnamed_addr #0 align 2 {
  %2 = alloca %class.ZVerifyMarkStacksEmptyClosure, align 8
  %3 = getelementptr inbounds i8, ptr %0, i64 384
  %4 = load ptr, ptr %0, align 64
  %5 = getelementptr inbounds i8, ptr %4, i64 8
  %6 = load i8, ptr %5, align 8
  store ptr getelementptr inbounds inrange(-16, 8) (i8, ptr @_ZTV29ZVerifyMarkStacksEmptyClosure, i64 16), ptr %2, align 8
  %7 = getelementptr inbounds i8, ptr %2, i64 8
  store ptr %3, ptr %7, align 8
  %8 = getelementptr inbounds i8, ptr %2, i64 16
  store i8 %6, ptr %8, align 8
  %9 = tail call noundef ptr @_ZN11ZGeneration7workersEv(ptr noundef nonnull align 64 dereferenceable(6592) %4) #15
  call void @_ZNK8ZWorkers10threads_doEP13ThreadClosure(ptr noundef nonnull align 8 dereferenceable(184) %9, ptr noundef nonnull %2) #15
  ret void
}